target datalayout = "e-m:e-p270:32:32-p271:32:32-p272:64:64-i64:64-i128:128-f80:128-n8:16:32:64-S128"
target triple = "x86_64-pc-linux-gnu"

%struct.H5HF_sect_add_ud_t = type { ptr }
%struct.H5HF_free_section_t = type { %struct.H5FS_section_info_t, %union.anon }
%struct.H5FS_section_info_t = type { i64, i64, i32, i32 }
%union.anon = type { %struct.anon.1 }
%struct.anon.1 = type { %union.anon.2, i32, i32, i32, ptr, i32, i64, i32, i32, i32, ptr, i32, ptr }
%union.anon.2 = type { ptr }
%struct.anon.0 = type { ptr, i32, i32, i32, i8 }

@H5HF_init_g = external global i8, align 1
@H5_libterm_g = external global i8, align 1
@.str = private unnamed_addr constant [105 x i8] c"generated/home/dtcxzyw/WorkSpace/Projects/compilers/llvm-opt-benchmark/bench/hdf5/hdf5/src/H5HFsection.c\00", align 1
@H5E_HEAP_g = external global i64, align 8
@H5E_CANTSHRINK_g = external global i64, align 8
@.str.42 = private unnamed_addr constant [41 x i8] c"can't shrink underlying indirect section\00", align 1
@__func__.H5HF__sect_row_shrink = private unnamed_addr constant [22 x i8] c"H5HF__sect_row_shrink\00", align 1

; Function Attrs: nounwind uwtable
define internal ptr @H5HF__sect_indirect_top(ptr noundef %0) #0 {
  %2 = alloca ptr, align 8
  %3 = alloca ptr, align 8
  store ptr %0, ptr %2, align 8, !tbaa !23
  call void @llvm.lifetime.start.p0(i64 8, ptr %3) #7
  store ptr null, ptr %3, align 8, !tbaa !23
  %4 = load i8, ptr @H5HF_init_g, align 1, !tbaa !13, !range !15, !noundef !16
  %5 = trunc i8 %4 to i1
  br i1 %5, label %10, label %6

6:                                                ; preds = %1
  %7 = load i8, ptr @H5_libterm_g, align 1, !tbaa !13, !range !15, !noundef !16
  %8 = trunc i8 %7 to i1
  %9 = xor i1 %8, true
  br label %10

10:                                               ; preds = %6, %1
  %11 = phi i1 [ true, %1 ], [ %9, %6 ]
  %12 = xor i1 %11, true
  %13 = xor i1 %12, true
  %14 = zext i1 %13 to i32
  %15 = sext i32 %14 to i64
  %16 = call i64 @llvm.expect.i64(i64 %15, i64 1)
  %17 = icmp ne i64 %16, 0
  br i1 %17, label %18, label %33

18:                                               ; preds = %10
  %19 = load ptr, ptr %2, align 8, !tbaa !23
  %20 = getelementptr inbounds nuw %struct.H5HF_free_section_t, ptr %19, i32 0, i32 1
  %21 = getelementptr inbounds nuw %struct.anon.1, ptr %20, i32 0, i32 4
  %22 = load ptr, ptr %21, align 8, !tbaa !63
  %23 = icmp ne ptr %22, null
  br i1 %23, label %24, label %30

24:                                               ; preds = %18
  %25 = load ptr, ptr %2, align 8, !tbaa !23
  %26 = getelementptr inbounds nuw %struct.H5HF_free_section_t, ptr %25, i32 0, i32 1
  %27 = getelementptr inbounds nuw %struct.anon.1, ptr %26, i32 0, i32 4
  %28 = load ptr, ptr %27, align 8, !tbaa !63
  %29 = call ptr @H5HF__sect_indirect_top(ptr noundef %28)
  store ptr %29, ptr %3, align 8, !tbaa !23
  br label %32

30:                                               ; preds = %18
  %31 = load ptr, ptr %2, align 8, !tbaa !23
  store ptr %31, ptr %3, align 8, !tbaa !23
  br label %32

32:                                               ; preds = %30, %24
  br label %33

33:                                               ; preds = %32, %10
  %34 = load ptr, ptr %3, align 8, !tbaa !23
  call void @llvm.lifetime.end.p0(i64 8, ptr %3) #7
  ret ptr %34
}

; Function Attrs: nounwind uwtable
define internal i32 @H5HF__sect_row_shrink(ptr noundef %0, ptr noundef %1) #0 {
  %3 = alloca ptr, align 8
  %4 = alloca ptr, align 8
  %5 = alloca ptr, align 8
  %6 = alloca ptr, align 8
  %7 = alloca ptr, align 8
  %8 = alloca ptr, align 8
  %9 = alloca i32, align 4
  %10 = alloca i8, align 1
  store ptr %0, ptr %3, align 8, !tbaa !3
  store ptr %1, ptr %4, align 8, !tbaa !10
  call void @llvm.lifetime.start.p0(i64 8, ptr %5) #7
  %11 = load ptr, ptr %3, align 8, !tbaa !3
  store ptr %11, ptr %5, align 8, !tbaa !17
  call void @llvm.lifetime.start.p0(i64 8, ptr %6) #7
  call void @llvm.lifetime.start.p0(i64 8, ptr %7) #7
  %12 = load ptr, ptr %4, align 8, !tbaa !10
  store ptr %12, ptr %7, align 8, !tbaa !10
  call void @llvm.lifetime.start.p0(i64 8, ptr %8) #7
  %13 = load ptr, ptr %7, align 8, !tbaa !10
  %14 = getelementptr inbounds nuw %struct.H5HF_sect_add_ud_t, ptr %13, i32 0, i32 0
  %15 = load ptr, ptr %14, align 8, !tbaa !19
  store ptr %15, ptr %8, align 8, !tbaa !22
  call void @llvm.lifetime.start.p0(i64 4, ptr %9) #7
  store i32 0, ptr %9, align 4, !tbaa !11
  call void @llvm.lifetime.start.p0(i64 1, ptr %10) #7
  store i8 0, ptr %10, align 1, !tbaa !13
  %16 = load i8, ptr @H5HF_init_g, align 1, !tbaa !13, !range !15, !noundef !16
  %17 = trunc i8 %16 to i1
  br i1 %17, label %22, label %18

18:                                               ; preds = %2
  %19 = load i8, ptr @H5_libterm_g, align 1, !tbaa !13, !range !15, !noundef !16
  %20 = trunc i8 %19 to i1
  %21 = xor i1 %20, true
  br label %22

22:                                               ; preds = %18, %2
  %23 = phi i1 [ true, %2 ], [ %21, %18 ]
  %24 = xor i1 %23, true
  %25 = xor i1 %24, true
  %26 = zext i1 %25 to i32
  %27 = sext i32 %26 to i64
  %28 = call i64 @llvm.expect.i64(i64 %27, i64 1)
  %29 = icmp ne i64 %28, 0
  br i1 %29, label %30, label %63

30:                                               ; preds = %22
  %31 = load ptr, ptr %5, align 8, !tbaa !17
  %32 = load ptr, ptr %31, align 8, !tbaa !23
  %33 = getelementptr inbounds nuw %struct.H5HF_free_section_t, ptr %32, i32 0, i32 1
  %34 = getelementptr inbounds nuw %struct.anon.0, ptr %33, i32 0, i32 0
  %35 = load ptr, ptr %34, align 8, !tbaa !63
  %36 = call ptr @H5HF__sect_indirect_top(ptr noundef %35)
  store ptr %36, ptr %6, align 8, !tbaa !23
  %37 = load ptr, ptr %8, align 8, !tbaa !22
  %38 = load ptr, ptr %6, align 8, !tbaa !23
  %39 = call i32 @H5HF__sect_indirect_shrink(ptr noundef %37, ptr noundef %38)
  %40 = icmp slt i32 %39, 0
  br i1 %40, label %41, label %60

41:                                               ; preds = %30
  br label %42

42:                                               ; preds = %41
  br label %43

43:                                               ; preds = %42
  br label %44

44:                                               ; preds = %43
  %45 = load i64, ptr @H5E_HEAP_g, align 8, !tbaa !25
  %46 = load i64, ptr @H5E_CANTSHRINK_g, align 8, !tbaa !25
  %47 = call i32 (ptr, ptr, i32, i64, i64, ptr, ...) @H5E_printf_stack(ptr noundef @.str, ptr noundef @__func__.H5HF__sect_row_shrink, i32 noundef 1786, i64 noundef %45, i64 noundef %46, ptr noundef @.str.42)
  br label %48

48:                                               ; preds = %44
  br label %49

49:                                               ; preds = %48
  store i8 1, ptr %10, align 1, !tbaa !13
  %50 = load i8, ptr %10, align 1, !tbaa !13, !range !15, !noundef !16
  %51 = trunc i8 %50 to i1
  %52 = zext i1 %51 to i8
  store i8 %52, ptr %10, align 1, !tbaa !13
  br label %53

53:                                               ; preds = %49
  br label %54

54:                                               ; preds = %53
  br label %55

55:                                               ; preds = %54
  store i32 -1, ptr %9, align 4, !tbaa !11
  br label %62

56:                                               ; No predecessors!
  br label %57

57:                                               ; preds = %56
  br label %58

58:                                               ; preds = %57
  br label %59

59:                                               ; preds = %58
  br label %60

60:                                               ; preds = %59, %30
  %61 = load ptr, ptr %5, align 8, !tbaa !17
  store ptr null, ptr %61, align 8, !tbaa !23
  br label %62

62:                                               ; preds = %60, %55
  br label %63

63:                                               ; preds = %62, %22
  %64 = load i32, ptr %9, align 4, !tbaa !11
  call void @llvm.lifetime.end.p0(i64 1, ptr %10) #7
  call void @llvm.lifetime.end.p0(i64 4, ptr %9) #7
  call void @llvm.lifetime.end.p0(i64 8, ptr %8) #7
  call void @llvm.lifetime.end.p0(i64 8, ptr %7) #7
  call void @llvm.lifetime.end.p0(i64 8, ptr %6) #7
  call void @llvm.lifetime.end.p0(i64 8, ptr %5) #7
  ret i32 %64
}