; Function Attrs: nounwind uwtable
define internal range(i32 -1, 1) i32 @H5HF__sect_row_shrink(ptr noundef captures(none) %0, ptr noundef readonly captures(none) %1) #0 {
  %3 = load i8, ptr @H5HF_init_g, align 1, !tbaa !3, !range !7, !noundef !8
  %4 = trunc nuw i8 %3 to i1
  %5 = load i8, ptr @H5_libterm_g, align 1, !range !7
  %6 = trunc nuw i8 %5 to i1
  %7 = xor i1 %6, true
  %8 = select i1 %4, i1 true, i1 %7
  br i1 %8, label %9, label %23, !prof !9

9:                                                ; preds = %2
  %10 = load ptr, ptr %1, align 8, !tbaa !12
  %11 = load ptr, ptr %0, align 8, !tbaa !16
  %12 = getelementptr inbounds nuw i8, ptr %11, i64 24
  %13 = load ptr, ptr %12, align 8, !tbaa !26
  br label %tailrecurse.i

tailrecurse.i:                                    ; preds = %9, %tailrecurse.i
  %.tr.i = phi ptr [ %15, %tailrecurse.i ], [ %13, %9 ]
  %14 = getelementptr inbounds nuw i8, ptr %.tr.i, i64 48
  %15 = load ptr, ptr %14, align 8, !tbaa !26
  %.not.i = icmp eq ptr %15, null
  br i1 %.not.i, label %H5HF__sect_indirect_top.exit, label %tailrecurse.i

H5HF__sect_indirect_top.exit:                     ; preds = %tailrecurse.i
  %16 = tail call fastcc i32 @H5HF__sect_indirect_shrink(ptr noundef %10, ptr noundef nonnull %.tr.i)
  %17 = icmp slt i32 %16, 0
  br i1 %17, label %18, label %22

18:                                               ; preds = %H5HF__sect_indirect_top.exit
  %19 = load i64, ptr @H5E_HEAP_g, align 8, !tbaa !18
  %20 = load i64, ptr @H5E_CANTSHRINK_g, align 8, !tbaa !18
  %21 = tail call i32 (ptr, ptr, i32, i64, i64, ptr, ...) @H5E_printf_stack(ptr noundef nonnull @.str, ptr noundef nonnull @__func__.H5HF__sect_row_shrink, i32 noundef 1786, i64 noundef %19, i64 noundef %20, ptr noundef nonnull @.str.42) #13
  br label %23

22:                                               ; preds = %H5HF__sect_indirect_top.exit
  store ptr null, ptr %0, align 8, !tbaa !16
  br label %23

23:                                               ; preds = %18, %22, %2
  %.0 = phi i32 [ -1, %18 ], [ 0, %22 ], [ 0, %2 ]
  ret i32 %.0
}